target datalayout = "e-m:e-p270:32:32-p271:32:32-p272:64:64-i64:64-i128:128-f80:128-n8:16:32:64-S128"
target triple = "x86_64-pc-linux-gnu"

; Function Attrs: mustprogress uwtable
define internal noundef i32 @_ZL10lua_vectorP9lua_State(ptr noundef %0) #4 {
  %2 = alloca ptr, align 8
  %3 = alloca double, align 8
  %4 = alloca double, align 8
  %5 = alloca double, align 8
  store ptr %0, ptr %2, align 8
  %6 = load ptr, ptr %2, align 8
  %7 = call noundef double @_Z16luaL_checknumberP9lua_Statei(ptr noundef %6, i32 noundef 1)
  store double %7, ptr %3, align 8
  %8 = load ptr, ptr %2, align 8
  %9 = call noundef double @_Z16luaL_checknumberP9lua_Statei(ptr noundef %8, i32 noundef 2)
  store double %9, ptr %4, align 8
  %10 = load ptr, ptr %2, align 8
  %11 = call noundef double @_Z16luaL_checknumberP9lua_Statei(ptr noundef %10, i32 noundef 3)
  store double %11, ptr %5, align 8
  %12 = load ptr, ptr %2, align 8
  %13 = load double, ptr %3, align 8
  %14 = fptrunc double %13 to float
  %15 = load double, ptr %4, align 8
  %16 = fptrunc double %15 to float
  %17 = load double, ptr %5, align 8
  %18 = fptrunc double %17 to float
  call void @_Z14lua_pushvectorP9lua_Statefff(ptr noundef %12, float noundef %14, float noundef %16, float noundef %18)
  ret i32 1
}