; Function Attrs: mustprogress uwtable
define internal noundef i32 @_ZL10lua_vectorP9lua_State(ptr noundef %0) #4 {
  %2 = tail call noundef double @_Z16luaL_checknumberP9lua_Statei(ptr noundef %0, i32 noundef 1)
  %3 = tail call noundef double @_Z16luaL_checknumberP9lua_Statei(ptr noundef %0, i32 noundef 2)
  %4 = tail call noundef double @_Z16luaL_checknumberP9lua_Statei(ptr noundef %0, i32 noundef 3)
  %5 = fptrunc double %2 to float
  %6 = fptrunc double %3 to float
  %7 = fptrunc double %4 to float
  tail call void @_Z14lua_pushvectorP9lua_Statefff(ptr noundef %0, float noundef %5, float noundef %6, float noundef %7)
  ret i32 1
}